target datalayout = "e-m:e-p270:32:32-p271:32:32-p272:64:64-i64:64-i128:128-f80:128-n8:16:32:64-S128"
target triple = "x86_64-pc-linux-gnu"

%struct.IDAMemRec = type { ptr, double, ptr, ptr, i32, double, double, ptr, i32, i32, ptr, ptr, i32, i32, [6 x ptr], [6 x double], [6 x double], [6 x double], [6 x double], [6 x double], ptr, ptr, ptr, ptr, ptr, ptr, ptr, ptr, ptr, ptr, ptr, ptr, ptr, ptr, ptr, ptr, ptr, double, ptr, ptr, i32, i32, i32, i32, i32, i32, i32, i32, double, double, double, i32, double, i32, i32, i32, i32, i32, double, double, double, double, double, double, double, double, double, double, double, double, double, double, double, double, i32, i32, i32, i32, i64, double, double, double, double, double, double, double, double, double, i64, i64, i64, i64, i64, i64, i64, i64, i64, i64, i64, double, i32, i32, i32, i32, i32, ptr, i32, ptr, ptr, ptr, ptr, ptr, ptr, ptr, double, i32, ptr, i32, ptr, ptr, double, double, double, ptr, ptr, ptr, double, double, i32, i32, i64, ptr, i32, [6 x double], [5 x double], [6 x ptr], [6 x ptr] }

@.str = private unnamed_addr constant [113 x i8] c"generated/home/dtcxzyw/WorkSpace/Projects/compilers/llvm-opt-benchmark/bench/sundials/sundials/src/ida/ida_nls.c\00", align 1
@.str.1 = private unnamed_addr constant [24 x i8] c"ida_mem = NULL illegal.\00", align 1
@__func__.IDAGetNonlinearSystemData = private unnamed_addr constant [26 x i8] c"IDAGetNonlinearSystemData\00", align 1

; Function Attrs: nounwind uwtable
define i32 @IDAGetNonlinearSystemData(ptr noundef %0, ptr noundef %1, ptr noundef %2, ptr noundef %3, ptr noundef %4, ptr noundef %5, ptr noundef %6, ptr noundef %7, ptr noundef %8) #0 {
  %10 = alloca i32, align 4
  %11 = alloca ptr, align 8
  %12 = alloca ptr, align 8
  %13 = alloca ptr, align 8
  %14 = alloca ptr, align 8
  %15 = alloca ptr, align 8
  %16 = alloca ptr, align 8
  %17 = alloca ptr, align 8
  %18 = alloca ptr, align 8
  %19 = alloca ptr, align 8
  %20 = alloca ptr, align 8
  %21 = alloca i32, align 4
  store ptr %0, ptr %11, align 8, !tbaa !3
  store ptr %1, ptr %12, align 8, !tbaa !45
  store ptr %2, ptr %13, align 8, !tbaa !46
  store ptr %3, ptr %14, align 8, !tbaa !46
  store ptr %4, ptr %15, align 8, !tbaa !46
  store ptr %5, ptr %16, align 8, !tbaa !46
  store ptr %6, ptr %17, align 8, !tbaa !46
  store ptr %7, ptr %18, align 8, !tbaa !45
  store ptr %8, ptr %19, align 8, !tbaa !3
  call void @llvm.lifetime.start.p0(i64 8, ptr %20) #3
  %22 = load ptr, ptr %11, align 8, !tbaa !3
  %23 = icmp eq ptr %22, null
  br i1 %23, label %24, label %25

24:                                               ; preds = %9
  call void (ptr, i32, i32, ptr, ptr, ptr, ...) @IDAProcessError(ptr noundef null, i32 noundef -20, i32 noundef 169, ptr noundef @__func__.IDAGetNonlinearSystemData, ptr noundef @.str, ptr noundef @.str.1)
  store i32 -20, ptr %10, align 4
  store i32 1, ptr %21, align 4
  br label %59

25:                                               ; preds = %9
  %26 = load ptr, ptr %11, align 8, !tbaa !3
  store ptr %26, ptr %20, align 8, !tbaa !9
  %27 = load ptr, ptr %20, align 8, !tbaa !9
  %28 = getelementptr inbounds nuw %struct.IDAMemRec, ptr %27, i32 0, i32 63
  %29 = load double, ptr %28, align 8, !tbaa !37
  %30 = load ptr, ptr %12, align 8, !tbaa !45
  store double %29, ptr %30, align 8, !tbaa !41
  %31 = load ptr, ptr %20, align 8, !tbaa !9
  %32 = getelementptr inbounds nuw %struct.IDAMemRec, ptr %31, i32 0, i32 23
  %33 = load ptr, ptr %32, align 8, !tbaa !32
  %34 = load ptr, ptr %13, align 8, !tbaa !46
  store ptr %33, ptr %34, align 8, !tbaa !31
  %35 = load ptr, ptr %20, align 8, !tbaa !9
  %36 = getelementptr inbounds nuw %struct.IDAMemRec, ptr %35, i32 0, i32 24
  %37 = load ptr, ptr %36, align 8, !tbaa !34
  %38 = load ptr, ptr %14, align 8, !tbaa !46
  store ptr %37, ptr %38, align 8, !tbaa !31
  %39 = load ptr, ptr %20, align 8, !tbaa !9
  %40 = getelementptr inbounds nuw %struct.IDAMemRec, ptr %39, i32 0, i32 21
  %41 = load ptr, ptr %40, align 8, !tbaa !33
  %42 = load ptr, ptr %15, align 8, !tbaa !46
  store ptr %41, ptr %42, align 8, !tbaa !31
  %43 = load ptr, ptr %20, align 8, !tbaa !9
  %44 = getelementptr inbounds nuw %struct.IDAMemRec, ptr %43, i32 0, i32 22
  %45 = load ptr, ptr %44, align 8, !tbaa !36
  %46 = load ptr, ptr %16, align 8, !tbaa !46
  store ptr %45, ptr %46, align 8, !tbaa !31
  %47 = load ptr, ptr %20, align 8, !tbaa !9
  %48 = getelementptr inbounds nuw %struct.IDAMemRec, ptr %47, i32 0, i32 28
  %49 = load ptr, ptr %48, align 8, !tbaa !40
  %50 = load ptr, ptr %17, align 8, !tbaa !46
  store ptr %49, ptr %50, align 8, !tbaa !31
  %51 = load ptr, ptr %20, align 8, !tbaa !9
  %52 = getelementptr inbounds nuw %struct.IDAMemRec, ptr %51, i32 0, i32 65
  %53 = load double, ptr %52, align 8, !tbaa !35
  %54 = load ptr, ptr %18, align 8, !tbaa !45
  store double %53, ptr %54, align 8, !tbaa !41
  %55 = load ptr, ptr %20, align 8, !tbaa !9
  %56 = getelementptr inbounds nuw %struct.IDAMemRec, ptr %55, i32 0, i32 3
  %57 = load ptr, ptr %56, align 8, !tbaa !38
  %58 = load ptr, ptr %19, align 8, !tbaa !3
  store ptr %57, ptr %58, align 8, !tbaa !3
  store i32 0, ptr %10, align 4
  store i32 1, ptr %21, align 4
  br label %59

59:                                               ; preds = %25, %24
  call void @llvm.lifetime.end.p0(i64 8, ptr %20) #3
  %60 = load i32, ptr %10, align 4
  ret i32 %60
}