; Function Attrs: nounwind uwtable
define range(i32 -20, 1) i32 @IDAGetNonlinearSystemData(ptr noundef readonly captures(address_is_null) %0, ptr noundef writeonly captures(none) %1, ptr noundef writeonly captures(none) %2, ptr noundef writeonly captures(none) %3, ptr noundef writeonly captures(none) %4, ptr noundef writeonly captures(none) %5, ptr noundef writeonly captures(none) %6, ptr noundef writeonly captures(none) %7, ptr noundef writeonly captures(none) %8) local_unnamed_addr #0 {
  %10 = icmp eq ptr %0, null
  br i1 %10, label %11, label %12

11:                                               ; preds = %9
  tail call void (ptr, i32, i32, ptr, ptr, ptr, ...) @IDAProcessError(ptr noundef null, i32 noundef -20, i32 noundef 169, ptr noundef nonnull @__func__.IDAGetNonlinearSystemData, ptr noundef nonnull @.str, ptr noundef nonnull @.str.1) #3
  br label %29

12:                                               ; preds = %9
  %13 = getelementptr inbounds nuw i8, ptr %0, i64 680
  %14 = load double, ptr %13, align 8, !tbaa !31
  store double %14, ptr %1, align 8, !tbaa !39
  %15 = getelementptr inbounds nuw i8, ptr %0, i64 408
  %16 = load ptr, ptr %15, align 8, !tbaa !26
  store ptr %16, ptr %2, align 8, !tbaa !40
  %17 = getelementptr inbounds nuw i8, ptr %0, i64 416
  %18 = load ptr, ptr %17, align 8, !tbaa !28
  store ptr %18, ptr %3, align 8, !tbaa !40
  %19 = getelementptr inbounds nuw i8, ptr %0, i64 392
  %20 = load ptr, ptr %19, align 8, !tbaa !27
  store ptr %20, ptr %4, align 8, !tbaa !40
  %21 = getelementptr inbounds nuw i8, ptr %0, i64 400
  %22 = load ptr, ptr %21, align 8, !tbaa !30
  store ptr %22, ptr %5, align 8, !tbaa !40
  %23 = getelementptr inbounds nuw i8, ptr %0, i64 448
  %24 = load ptr, ptr %23, align 8, !tbaa !34
  store ptr %24, ptr %6, align 8, !tbaa !40
  %25 = getelementptr inbounds nuw i8, ptr %0, i64 696
  %26 = load double, ptr %25, align 8, !tbaa !29
  store double %26, ptr %7, align 8, !tbaa !39
  %27 = getelementptr inbounds nuw i8, ptr %0, i64 24
  %28 = load ptr, ptr %27, align 8, !tbaa !32
  store ptr %28, ptr %8, align 8, !tbaa !41
  br label %29

29:                                               ; preds = %12, %11
  %.0 = phi i32 [ -20, %11 ], [ 0, %12 ]
  ret i32 %.0
}